; Function Attrs: mustprogress uwtable
define dso_local void @_ZN32cmMakefileLibraryTargetGenerator14WriteRuleFilesEv(ptr noundef nonnull align 8 dereferenceable(1128) %0) unnamed_addr #3 align 2 personality ptr @__gxx_personality_v0 {
  %2 = alloca %"class.std::__cxx11::basic_string", align 8
  %3 = alloca %"class.std::__cxx11::basic_string", align 8
  %4 = alloca %"class.std::__cxx11::basic_string", align 8
  %5 = alloca %"class.std::allocator", align 1
  tail call void @_ZN25cmMakefileTargetGenerator14CreateRuleFileEv(ptr noundef nonnull align 8 dereferenceable(1064) %0)
  tail call void @_ZN25cmMakefileTargetGenerator20WriteCommonCodeRulesEv(ptr noundef nonnull align 8 dereferenceable(1064) %0)
  tail call void @_ZN25cmMakefileTargetGenerator24WriteTargetLanguageFlagsEv(ptr noundef nonnull align 8 dereferenceable(1064) %0)
  tail call void @_ZN25cmMakefileTargetGenerator21WriteTargetBuildRulesEv(ptr noundef nonnull align 8 dereferenceable(1064) %0)
  tail call void @_ZN25cmMakefileTargetGenerator26WriteTargetLinkDependRulesEv(ptr noundef nonnull align 8 dereferenceable(1064) %0)
  %6 = getelementptr inbounds i8, ptr %0, i64 8
  %7 = load ptr, ptr %6, align 8
  %8 = tail call noundef i32 @_ZNK17cmGeneratorTarget7GetTypeEv(ptr noundef nonnull align 8 dereferenceable(2728) %7)
  switch i32 %8, label %25 [
    i32 1, label %9
    i32 2, label %10
    i32 3, label %17
    i32 4, label %24
  ]

9:                                                ; preds = %1
  tail call void @_ZN32cmMakefileLibraryTargetGenerator23WriteStaticLibraryRulesEv(ptr noundef nonnull align 8 dereferenceable(1128) %0)
  br label %34

10:                                               ; preds = %1
  tail call void @_ZN32cmMakefileLibraryTargetGenerator23WriteSharedLibraryRulesEb(ptr noundef nonnull align 8 dereferenceable(1128) %0, i1 noundef zeroext false)
  %11 = load ptr, ptr %6, align 8
  call void @_ZNK25cmMakefileTargetGenerator13GetConfigNameB5cxx11Ev(ptr dead_on_unwind nonnull writable sret(%"class.std::__cxx11::basic_string") align 8 %2, ptr noundef nonnull align 8 dereferenceable(1064) %0)
  %12 = invoke noundef zeroext i1 @_ZNK17cmGeneratorTarget23NeedRelinkBeforeInstallERKNSt7__cxx1112basic_stringIcSt11char_traitsIcESaIcEEE(ptr noundef nonnull align 8 dereferenceable(2728) %11, ptr noundef nonnull align 8 dereferenceable(32) %2)
          to label %13 unwind label %15

13:                                               ; preds = %10
  call void @_ZNSt7__cxx1112basic_stringIcSt11char_traitsIcESaIcEED1Ev(ptr noundef nonnull align 8 dereferenceable(32) %2) #17
  br i1 %12, label %14, label %34

14:                                               ; preds = %13
  call void @_ZN32cmMakefileLibraryTargetGenerator23WriteSharedLibraryRulesEb(ptr noundef nonnull align 8 dereferenceable(1128) %0, i1 noundef zeroext true)
  br label %34

15:                                               ; preds = %10
  %16 = landingpad { ptr, i32 }
          cleanup
  call void @_ZNSt7__cxx1112basic_stringIcSt11char_traitsIcESaIcEED1Ev(ptr noundef nonnull align 8 dereferenceable(32) %2) #17
  br label %38

17:                                               ; preds = %1
  tail call void @_ZN32cmMakefileLibraryTargetGenerator23WriteModuleLibraryRulesEb(ptr noundef nonnull align 8 dereferenceable(1128) %0, i1 noundef zeroext false)
  %18 = load ptr, ptr %6, align 8
  call void @_ZNK25cmMakefileTargetGenerator13GetConfigNameB5cxx11Ev(ptr dead_on_unwind nonnull writable sret(%"class.std::__cxx11::basic_string") align 8 %3, ptr noundef nonnull align 8 dereferenceable(1064) %0)
  %19 = invoke noundef zeroext i1 @_ZNK17cmGeneratorTarget23NeedRelinkBeforeInstallERKNSt7__cxx1112basic_stringIcSt11char_traitsIcESaIcEEE(ptr noundef nonnull align 8 dereferenceable(2728) %18, ptr noundef nonnull align 8 dereferenceable(32) %3)
          to label %20 unwind label %22

20:                                               ; preds = %17
  call void @_ZNSt7__cxx1112basic_stringIcSt11char_traitsIcESaIcEED1Ev(ptr noundef nonnull align 8 dereferenceable(32) %3) #17
  br i1 %19, label %21, label %34

21:                                               ; preds = %20
  call void @_ZN32cmMakefileLibraryTargetGenerator23WriteModuleLibraryRulesEb(ptr noundef nonnull align 8 dereferenceable(1128) %0, i1 noundef zeroext true)
  br label %34

22:                                               ; preds = %17
  %23 = landingpad { ptr, i32 }
          cleanup
  call void @_ZNSt7__cxx1112basic_stringIcSt11char_traitsIcESaIcEED1Ev(ptr noundef nonnull align 8 dereferenceable(32) %3) #17
  br label %38

24:                                               ; preds = %1
  tail call void @_ZN32cmMakefileLibraryTargetGenerator23WriteObjectLibraryRulesEv(ptr noundef nonnull align 8 dereferenceable(1128) %0)
  br label %34

25:                                               ; preds = %1
  call void @_ZNSaIcEC1Ev(ptr noundef nonnull align 1 dereferenceable(1) %5) #17
  %26 = invoke noundef ptr @_ZNSt7__cxx1112basic_stringIcSt11char_traitsIcESaIcEE13_M_local_dataEv(ptr noundef nonnull align 8 dereferenceable(32) %4)
          to label %.noexc unwind label %30

.noexc:                                           ; preds = %25
  invoke void @_ZNSt7__cxx1112basic_stringIcSt11char_traitsIcESaIcEE12_Alloc_hiderC1EPcRKS3_(ptr noundef nonnull align 8 dereferenceable(8) %4, ptr noundef %26, ptr noundef nonnull align 1 dereferenceable(1) %5)
          to label %.noexc6 unwind label %30

.noexc6:                                          ; preds = %.noexc
  invoke void @_ZNSt7__cxx1112basic_stringIcSt11char_traitsIcESaIcEE12_M_constructIPKcEEvT_S8_St20forward_iterator_tag(ptr noundef nonnull align 8 dereferenceable(32) %4, ptr noundef nonnull @.str, ptr noundef nonnull getelementptr inbounds ([21 x i8], ptr @.str, i64 0, i64 20))
          to label %_ZNSt7__cxx1112basic_stringIcSt11char_traitsIcESaIcEEC2IS3_EEPKcRKS3_.exit unwind label %27

27:                                               ; preds = %.noexc6
  %28 = landingpad { ptr, i32 }
          cleanup
  call void @_ZNSaIcED2Ev(ptr noundef nonnull align 1 dereferenceable(1) %4) #17
  br label %.body

_ZNSt7__cxx1112basic_stringIcSt11char_traitsIcESaIcEEC2IS3_EEPKcRKS3_.exit: ; preds = %.noexc6
  invoke void @_ZN13cmSystemTools5ErrorERKNSt7__cxx1112basic_stringIcSt11char_traitsIcESaIcEEE(ptr noundef nonnull align 8 dereferenceable(32) %4)
          to label %29 unwind label %32

29:                                               ; preds = %_ZNSt7__cxx1112basic_stringIcSt11char_traitsIcESaIcEEC2IS3_EEPKcRKS3_.exit
  call void @_ZNSt7__cxx1112basic_stringIcSt11char_traitsIcESaIcEED1Ev(ptr noundef nonnull align 8 dereferenceable(32) %4) #17
  call void @_ZNSaIcED1Ev(ptr noundef nonnull align 1 dereferenceable(1) %5) #17
  br label %34

30:                                               ; preds = %.noexc, %25
  %31 = landingpad { ptr, i32 }
          cleanup
  br label %.body

32:                                               ; preds = %_ZNSt7__cxx1112basic_stringIcSt11char_traitsIcESaIcEEC2IS3_EEPKcRKS3_.exit
  %33 = landingpad { ptr, i32 }
          cleanup
  call void @_ZNSt7__cxx1112basic_stringIcSt11char_traitsIcESaIcEED1Ev(ptr noundef nonnull align 8 dereferenceable(32) %4) #17
  br label %.body

.body:                                            ; preds = %30, %27, %32
  %.pn = phi { ptr, i32 } [ %33, %32 ], [ %31, %30 ], [ %28, %27 ]
  call void @_ZNSaIcED1Ev(ptr noundef nonnull align 1 dereferenceable(1) %5) #17
  br label %38

34:                                               ; preds = %20, %21, %13, %14, %29, %24, %9
  call void @_ZN25cmMakefileTargetGenerator21WriteTargetCleanRulesEv(ptr noundef nonnull align 8 dereferenceable(1064) %0)
  call void @_ZN25cmMakefileTargetGenerator22WriteTargetDependRulesEv(ptr noundef nonnull align 8 dereferenceable(1064) %0)
  %35 = load ptr, ptr %0, align 8
  %36 = getelementptr inbounds i8, ptr %35, i64 48
  %37 = load ptr, ptr %36, align 8
  call void %37(ptr noundef nonnull align 8 dereferenceable(1064) %0)
  ret void

38:                                               ; preds = %.body, %22, %15
  %.pn.pn = phi { ptr, i32 } [ %.pn, %.body ], [ %23, %22 ], [ %16, %15 ]
  resume { ptr, i32 } %.pn.pn
}